; Function Attrs: mustprogress nounwind uwtable
define hidden void @_ZN9ZStatMark5printEv(ptr nocapture noundef nonnull readonly align 8 dereferenceable(48) %0) local_unnamed_addr #0 align 2 {
  %2 = load volatile ptr, ptr getelementptr inbounds (i8, ptr @_ZN16LogTagSetMappingILN6LogTag4typeE49ELS1_80ELS1_0ELS1_0ELS1_0ELS1_0EE7_tagsetE, i64 64), align 8
  %.not = icmp eq ptr %2, null
  br i1 %.not, label %13, label %3

3:                                                ; preds = %1
  %4 = load i64, ptr %0, align 8
  %5 = getelementptr inbounds i8, ptr %0, i64 8
  %6 = load i64, ptr %5, align 8
  %7 = getelementptr inbounds i8, ptr %0, i64 16
  %8 = load i64, ptr %7, align 8
  %9 = getelementptr inbounds i8, ptr %0, i64 24
  %10 = load i64, ptr %9, align 8
  %11 = getelementptr inbounds i8, ptr %0, i64 32
  %12 = load i64, ptr %11, align 8
  tail call void (ptr, ...) @_ZN7LogImplILN6LogTag4typeE49ELS1_80ELS1_0ELS1_0ELS1_0ELS1_0EE5writeILN8LogLevel4typeE3EEEvPKcz(ptr noundef nonnull @.str.41, i64 noundef %4, i64 noundef %6, i64 noundef %8, i64 noundef %10, i64 noundef %12)
  br label %13

13:                                               ; preds = %1, %3
  %14 = load volatile ptr, ptr getelementptr inbounds (i8, ptr @_ZN16LogTagSetMappingILN6LogTag4typeE49ELS1_80ELS1_0ELS1_0ELS1_0ELS1_0EE7_tagsetE, i64 64), align 8
  %.not1 = icmp eq ptr %14, null
  br i1 %.not1, label %19, label %15

15:                                               ; preds = %13
  %16 = getelementptr inbounds i8, ptr %0, i64 40
  %17 = load i64, ptr %16, align 8
  %18 = lshr i64 %17, 20
  tail call void (ptr, ...) @_ZN7LogImplILN6LogTag4typeE49ELS1_80ELS1_0ELS1_0ELS1_0ELS1_0EE5writeILN8LogLevel4typeE3EEEvPKcz(ptr noundef nonnull @.str.42, i64 noundef %18)
  br label %19

19:                                               ; preds = %13, %15
  ret void
}